; Function Attrs: mustprogress uwtable
define dso_local noundef zeroext i1 @_ZN4absl5Mutex13ReaderTryLockEv(ptr noundef nonnull align 8 dereferenceable(8) %0) local_unnamed_addr #0 align 2 {
  %2 = load atomic i64, ptr %0 monotonic, align 8
  %3 = and i64 %2, 28
  %.not612 = icmp eq i64 %3, 0
  br i1 %.not612, label %.lr.ph, label %._crit_edge, !prof !114

.lr.ph:                                           ; preds = %1, %8
  %.0414 = phi i32 [ %10, %8 ], [ 5, %1 ]
  %.013 = phi i64 [ %9, %8 ], [ %2, %1 ]
  %4 = or i64 %.013, 1
  %5 = add nsw i64 %4, 256
  %6 = cmpxchg ptr %0, i64 %.013, i64 %5 acquire monotonic, align 8
  %7 = extractvalue { i64, i1 } %6, 1
  br i1 %7, label %.critedge, label %8

8:                                                ; preds = %.lr.ph
  %9 = extractvalue { i64, i1 } %6, 0
  %10 = add nsw i32 %.0414, -1
  %.not = icmp ne i32 %10, 0
  %11 = and i64 %9, 28
  %.not6 = icmp eq i64 %11, 0
  %or.cond = select i1 %.not, i1 %.not6, i1 false
  br i1 %or.cond, label %.lr.ph, label %._crit_edge, !prof !115, !llvm.loop !116

._crit_edge:                                      ; preds = %8, %1
  %.0.lcssa = phi i64 [ %2, %1 ], [ %9, %8 ]
  %12 = and i64 %.0.lcssa, 16
  %13 = icmp eq i64 %12, 0
  br i1 %13, label %.critedge, label %14, !prof !19

14:                                               ; preds = %._crit_edge
  %15 = tail call noundef zeroext i1 @_ZN4absl5Mutex17ReaderTryLockSlowEv(ptr noundef nonnull align 8 dereferenceable(8) %0)
  br label %.critedge

.critedge:                                        ; preds = %.lr.ph, %._crit_edge, %14
  %.1 = phi i1 [ %15, %14 ], [ false, %._crit_edge ], [ true, %.lr.ph ]
  ret i1 %.1
}